target datalayout = "e-m:e-p270:32:32-p271:32:32-p272:64:64-i64:64-i128:128-f80:128-n8:16:32:64-S128"
target triple = "x86_64-pc-linux-gnu"

%struct.H5VL_loc_params_t = type { i32, i32, %union.anon }
%union.anon = type { %struct.H5VL_loc_by_idx }
%struct.H5VL_loc_by_idx = type { ptr, i32, i32, i64, i64 }
%struct.H5VL_object_t = type { ptr, ptr, i64 }
%struct.H5T_t = type { %struct.H5O_shared_t, ptr, %struct.H5O_loc_t, %struct.H5G_name_t, ptr }
%struct.H5O_shared_t = type { i32, ptr, i32, %union.anon.0 }
%union.anon.0 = type { %struct.H5O_mesg_loc_t }
%struct.H5O_mesg_loc_t = type { i32, i64 }
%struct.H5O_loc_t = type { ptr, i64, i8 }
%struct.H5G_name_t = type { ptr, ptr, i32 }

@H5_libinit_g = external global i8, align 1
@H5_libterm_g = external global i8, align 1
@.str = private unnamed_addr constant [103 x i8] c"generated/home/dtcxzyw/WorkSpace/Projects/compilers/llvm-opt-benchmark/bench/hdf5/hdf5/src/H5Tdeprec.c\00", align 1
@__func__.H5Tcommit1 = private unnamed_addr constant [11 x i8] c"H5Tcommit1\00", align 1
@H5E_FUNC_g = external global i64, align 8
@H5E_CANTINIT_g = external global i64, align 8
@.str.1 = private unnamed_addr constant [30 x i8] c"library initialization failed\00", align 1
@H5E_CANTSET_g = external global i64, align 8
@.str.2 = private unnamed_addr constant [22 x i8] c"can't set API context\00", align 1
@H5E_ARGS_g = external global i64, align 8
@H5E_BADVALUE_g = external global i64, align 8
@.str.3 = private unnamed_addr constant [8 x i8] c"no name\00", align 1
@H5E_BADTYPE_g = external global i64, align 8
@.str.4 = private unnamed_addr constant [15 x i8] c"not a datatype\00", align 1
@.str.5 = private unnamed_addr constant [30 x i8] c"datatype is already committed\00", align 1
@H5E_DATATYPE_g = external global i64, align 8
@.str.6 = private unnamed_addr constant [36 x i8] c"can't set access property list info\00", align 1
@.str.7 = private unnamed_addr constant [26 x i8] c"invalid object identifier\00", align 1
@H5P_LST_LINK_CREATE_ID_g = external global i64, align 8
@H5P_LST_DATATYPE_CREATE_ID_g = external global i64, align 8
@H5P_LST_DATATYPE_ACCESS_ID_g = external global i64, align 8
@H5P_LST_DATASET_XFER_ID_g = external global i64, align 8
@.str.8 = private unnamed_addr constant [26 x i8] c"unable to commit datatype\00", align 1
@H5E_CANTALLOC_g = external global i64, align 8
@.str.9 = private unnamed_addr constant [47 x i8] c"can't create VOL object for committed datatype\00", align 1

; Function Attrs: nounwind uwtable
define i32 @H5Tcommit1(i64 noundef %0, ptr noundef %1, i64 noundef %2) #0 {
  %4 = alloca i64, align 8
  %5 = alloca ptr, align 8
  %6 = alloca i64, align 8
  %7 = alloca ptr, align 8
  %8 = alloca ptr, align 8
  %9 = alloca ptr, align 8
  %10 = alloca ptr, align 8
  %11 = alloca %struct.H5VL_loc_params_t, align 8
  %12 = alloca i32, align 4
  %13 = alloca i8, align 1
  %14 = alloca i8, align 1
  store i64 %0, ptr %4, align 8
  store ptr %1, ptr %5, align 8
  store i64 %2, ptr %6, align 8
  store ptr null, ptr %7, align 8
  store ptr null, ptr %8, align 8
  store ptr null, ptr %9, align 8
  store ptr null, ptr %10, align 8
  store i32 0, ptr %12, align 4
  store i8 0, ptr %13, align 1
  store i8 0, ptr %14, align 1
  %15 = load i8, ptr @H5_libinit_g, align 1
  %16 = trunc i8 %15 to i1
  br i1 %16, label %21, label %17

17:                                               ; preds = %3
  %18 = load i8, ptr @H5_libterm_g, align 1
  %19 = trunc i8 %18 to i1
  %20 = xor i1 %19, true
  br label %21

21:                                               ; preds = %17, %3
  %22 = phi i1 [ false, %3 ], [ %20, %17 ]
  %23 = xor i1 %22, true
  %24 = xor i1 %23, true
  %25 = zext i1 %24 to i32
  %26 = sext i32 %25 to i64
  %27 = icmp ne i64 %26, 0
  br i1 %27, label %28, label %52

28:                                               ; preds = %21
  %29 = call i32 @H5_init_library()
  %30 = icmp slt i32 %29, 0
  %31 = xor i1 %30, true
  %32 = xor i1 %31, true
  %33 = zext i1 %32 to i32
  %34 = sext i32 %33 to i64
  %35 = icmp ne i64 %34, 0
  br i1 %35, label %36, label %51

36:                                               ; preds = %28
  br label %37

37:                                               ; preds = %36
  br label %38

38:                                               ; preds = %37
  br label %39

39:                                               ; preds = %38
  %40 = load i64, ptr @H5E_FUNC_g, align 8
  %41 = load i64, ptr @H5E_CANTINIT_g, align 8
  %42 = call i32 (ptr, ptr, i32, i64, i64, ptr, ...) @H5E_printf_stack(ptr noundef @.str, ptr noundef @__func__.H5Tcommit1, i32 noundef 101, i64 noundef %40, i64 noundef %41, ptr noundef @.str.1)
  br label %43

43:                                               ; preds = %39
  store i8 1, ptr %14, align 1
  %44 = load i8, ptr %14, align 1
  %45 = trunc i8 %44 to i1
  %46 = zext i1 %45 to i8
  store i8 %46, ptr %14, align 1
  br label %47

47:                                               ; preds = %43
  br label %48

48:                                               ; preds = %47
  store i32 -1, ptr %12, align 4
  br label %230

49:                                               ; No predecessors!
  br label %50

50:                                               ; preds = %49
  br label %51

51:                                               ; preds = %50, %28
  br label %52

52:                                               ; preds = %51, %21
  %53 = call i32 @H5CX_push()
  %54 = icmp slt i32 %53, 0
  %55 = xor i1 %54, true
  %56 = xor i1 %55, true
  %57 = zext i1 %56 to i32
  %58 = sext i32 %57 to i64
  %59 = icmp ne i64 %58, 0
  br i1 %59, label %60, label %75

60:                                               ; preds = %52
  br label %61

61:                                               ; preds = %60
  br label %62

62:                                               ; preds = %61
  br label %63

63:                                               ; preds = %62
  %64 = load i64, ptr @H5E_FUNC_g, align 8
  %65 = load i64, ptr @H5E_CANTSET_g, align 8
  %66 = call i32 (ptr, ptr, i32, i64, i64, ptr, ...) @H5E_printf_stack(ptr noundef @.str, ptr noundef @__func__.H5Tcommit1, i32 noundef 101, i64 noundef %64, i64 noundef %65, ptr noundef @.str.2)
  br label %67

67:                                               ; preds = %63
  store i8 1, ptr %14, align 1
  %68 = load i8, ptr %14, align 1
  %69 = trunc i8 %68 to i1
  %70 = zext i1 %69 to i8
  store i8 %70, ptr %14, align 1
  br label %71

71:                                               ; preds = %67
  br label %72

72:                                               ; preds = %71
  store i32 -1, ptr %12, align 4
  br label %230

73:                                               ; No predecessors!
  br label %74

74:                                               ; preds = %73
  br label %76

75:                                               ; preds = %52
  store i8 1, ptr %13, align 1
  br label %76

76:                                               ; preds = %75, %74
  %77 = call i32 @H5E_clear_stack()
  %78 = load ptr, ptr %5, align 8
  %79 = icmp ne ptr %78, null
  br i1 %79, label %80, label %84

80:                                               ; preds = %76
  %81 = load ptr, ptr %5, align 8
  %82 = load i8, ptr %81, align 1
  %83 = icmp ne i8 %82, 0
  br i1 %83, label %99, label %84

84:                                               ; preds = %80, %76
  br label %85

85:                                               ; preds = %84
  br label %86

86:                                               ; preds = %85
  br label %87

87:                                               ; preds = %86
  %88 = load i64, ptr @H5E_ARGS_g, align 8
  %89 = load i64, ptr @H5E_BADVALUE_g, align 8
  %90 = call i32 (ptr, ptr, i32, i64, i64, ptr, ...) @H5E_printf_stack(ptr noundef @.str, ptr noundef @__func__.H5Tcommit1, i32 noundef 105, i64 noundef %88, i64 noundef %89, ptr noundef @.str.3)
  br label %91

91:                                               ; preds = %87
  store i8 1, ptr %14, align 1
  %92 = load i8, ptr %14, align 1
  %93 = trunc i8 %92 to i1
  %94 = zext i1 %93 to i8
  store i8 %94, ptr %14, align 1
  br label %95

95:                                               ; preds = %91
  br label %96

96:                                               ; preds = %95
  store i32 -1, ptr %12, align 4
  br label %230

97:                                               ; No predecessors!
  br label %98

98:                                               ; preds = %97
  br label %99

99:                                               ; preds = %98, %80
  %100 = load i64, ptr %6, align 8
  %101 = call ptr @H5I_object_verify(i64 noundef %100, i32 noundef 3)
  store ptr %101, ptr %9, align 8
  %102 = icmp eq ptr null, %101
  br i1 %102, label %103, label %118

103:                                              ; preds = %99
  br label %104

104:                                              ; preds = %103
  br label %105

105:                                              ; preds = %104
  br label %106

106:                                              ; preds = %105
  %107 = load i64, ptr @H5E_ARGS_g, align 8
  %108 = load i64, ptr @H5E_BADTYPE_g, align 8
  %109 = call i32 (ptr, ptr, i32, i64, i64, ptr, ...) @H5E_printf_stack(ptr noundef @.str, ptr noundef @__func__.H5Tcommit1, i32 noundef 107, i64 noundef %107, i64 noundef %108, ptr noundef @.str.4)
  br label %110

110:                                              ; preds = %106
  store i8 1, ptr %14, align 1
  %111 = load i8, ptr %14, align 1
  %112 = trunc i8 %111 to i1
  %113 = zext i1 %112 to i8
  store i8 %113, ptr %14, align 1
  br label %114

114:                                              ; preds = %110
  br label %115

115:                                              ; preds = %114
  store i32 -1, ptr %12, align 4
  br label %230

116:                                              ; No predecessors!
  br label %117

117:                                              ; preds = %116
  br label %118

118:                                              ; preds = %117, %99
  %119 = load ptr, ptr %9, align 8
  %120 = call i32 @H5T_is_named(ptr noundef %119)
  %121 = icmp ne i32 %120, 0
  br i1 %121, label %122, label %137

122:                                              ; preds = %118
  br label %123

123:                                              ; preds = %122
  br label %124

124:                                              ; preds = %123
  br label %125

125:                                              ; preds = %124
  %126 = load i64, ptr @H5E_ARGS_g, align 8
  %127 = load i64, ptr @H5E_CANTSET_g, align 8
  %128 = call i32 (ptr, ptr, i32, i64, i64, ptr, ...) @H5E_printf_stack(ptr noundef @.str, ptr noundef @__func__.H5Tcommit1, i32 noundef 109, i64 noundef %126, i64 noundef %127, ptr noundef @.str.5)
  br label %129

129:                                              ; preds = %125
  store i8 1, ptr %14, align 1
  %130 = load i8, ptr %14, align 1
  %131 = trunc i8 %130 to i1
  %132 = zext i1 %131 to i8
  store i8 %132, ptr %14, align 1
  br label %133

133:                                              ; preds = %129
  br label %134

134:                                              ; preds = %133
  store i32 -1, ptr %12, align 4
  br label %230

135:                                              ; No predecessors!
  br label %136

136:                                              ; preds = %135
  br label %137

137:                                              ; preds = %136, %118
  %138 = load i64, ptr %4, align 8
  %139 = call i32 @H5CX_set_loc(i64 noundef %138)
  %140 = icmp slt i32 %139, 0
  br i1 %140, label %141, label %156

141:                                              ; preds = %137
  br label %142

142:                                              ; preds = %141
  br label %143

143:                                              ; preds = %142
  br label %144

144:                                              ; preds = %143
  %145 = load i64, ptr @H5E_DATATYPE_g, align 8
  %146 = load i64, ptr @H5E_CANTSET_g, align 8
  %147 = call i32 (ptr, ptr, i32, i64, i64, ptr, ...) @H5E_printf_stack(ptr noundef @.str, ptr noundef @__func__.H5Tcommit1, i32 noundef 113, i64 noundef %145, i64 noundef %146, ptr noundef @.str.6)
  br label %148

148:                                              ; preds = %144
  store i8 1, ptr %14, align 1
  %149 = load i8, ptr %14, align 1
  %150 = trunc i8 %149 to i1
  %151 = zext i1 %150 to i8
  store i8 %151, ptr %14, align 1
  br label %152

152:                                              ; preds = %148
  br label %153

153:                                              ; preds = %152
  store i32 -1, ptr %12, align 4
  br label %230

154:                                              ; No predecessors!
  br label %155

155:                                              ; preds = %154
  br label %156

156:                                              ; preds = %155, %137
  %157 = getelementptr inbounds %struct.H5VL_loc_params_t, ptr %11, i32 0, i32 1
  store i32 0, ptr %157, align 4
  %158 = load i64, ptr %4, align 8
  %159 = call i32 @H5I_get_type(i64 noundef %158)
  %160 = getelementptr inbounds %struct.H5VL_loc_params_t, ptr %11, i32 0, i32 0
  store i32 %159, ptr %160, align 8
  %161 = load i64, ptr %4, align 8
  %162 = call ptr @H5I_object(i64 noundef %161)
  store ptr %162, ptr %10, align 8
  %163 = icmp eq ptr null, %162
  br i1 %163, label %164, label %179

164:                                              ; preds = %156
  br label %165

165:                                              ; preds = %164
  br label %166

166:                                              ; preds = %165
  br label %167

167:                                              ; preds = %166
  %168 = load i64, ptr @H5E_ARGS_g, align 8
  %169 = load i64, ptr @H5E_BADTYPE_g, align 8
  %170 = call i32 (ptr, ptr, i32, i64, i64, ptr, ...) @H5E_printf_stack(ptr noundef @.str, ptr noundef @__func__.H5Tcommit1, i32 noundef 120, i64 noundef %168, i64 noundef %169, ptr noundef @.str.7)
  br label %171

171:                                              ; preds = %167
  store i8 1, ptr %14, align 1
  %172 = load i8, ptr %14, align 1
  %173 = trunc i8 %172 to i1
  %174 = zext i1 %173 to i8
  store i8 %174, ptr %14, align 1
  br label %175

175:                                              ; preds = %171
  br label %176

176:                                              ; preds = %175
  store i32 -1, ptr %12, align 4
  br label %230

177:                                              ; No predecessors!
  br label %178

178:                                              ; preds = %177
  br label %179

179:                                              ; preds = %178, %156
  %180 = load ptr, ptr %10, align 8
  %181 = load ptr, ptr %5, align 8
  %182 = load i64, ptr %6, align 8
  %183 = load i64, ptr @H5P_LST_LINK_CREATE_ID_g, align 8
  %184 = load i64, ptr @H5P_LST_DATATYPE_CREATE_ID_g, align 8
  %185 = load i64, ptr @H5P_LST_DATATYPE_ACCESS_ID_g, align 8
  %186 = load i64, ptr @H5P_LST_DATASET_XFER_ID_g, align 8
  %187 = call ptr @H5VL_datatype_commit(ptr noundef %180, ptr noundef %11, ptr noundef %181, i64 noundef %182, i64 noundef %183, i64 noundef %184, i64 noundef %185, i64 noundef %186, ptr noundef null)
  store ptr %187, ptr %7, align 8
  %188 = icmp eq ptr null, %187
  br i1 %188, label %189, label %204

189:                                              ; preds = %179
  br label %190

190:                                              ; preds = %189
  br label %191

191:                                              ; preds = %190
  br label %192

192:                                              ; preds = %191
  %193 = load i64, ptr @H5E_DATATYPE_g, align 8
  %194 = load i64, ptr @H5E_CANTINIT_g, align 8
  %195 = call i32 (ptr, ptr, i32, i64, i64, ptr, ...) @H5E_printf_stack(ptr noundef @.str, ptr noundef @__func__.H5Tcommit1, i32 noundef 126, i64 noundef %193, i64 noundef %194, ptr noundef @.str.8)
  br label %196

196:                                              ; preds = %192
  store i8 1, ptr %14, align 1
  %197 = load i8, ptr %14, align 1
  %198 = trunc i8 %197 to i1
  %199 = zext i1 %198 to i8
  store i8 %199, ptr %14, align 1
  br label %200

200:                                              ; preds = %196
  br label %201

201:                                              ; preds = %200
  store i32 -1, ptr %12, align 4
  br label %230

202:                                              ; No predecessors!
  br label %203

203:                                              ; preds = %202
  br label %204

204:                                              ; preds = %203, %179
  %205 = load ptr, ptr %7, align 8
  %206 = load ptr, ptr %10, align 8
  %207 = getelementptr inbounds %struct.H5VL_object_t, ptr %206, i32 0, i32 1
  %208 = load ptr, ptr %207, align 8
  %209 = call ptr @H5VL_create_object(ptr noundef %205, ptr noundef %208)
  store ptr %209, ptr %8, align 8
  %210 = icmp eq ptr null, %209
  br i1 %210, label %211, label %226

211:                                              ; preds = %204
  br label %212

212:                                              ; preds = %211
  br label %213

213:                                              ; preds = %212
  br label %214

214:                                              ; preds = %213
  %215 = load i64, ptr @H5E_DATATYPE_g, align 8
  %216 = load i64, ptr @H5E_CANTALLOC_g, align 8
  %217 = call i32 (ptr, ptr, i32, i64, i64, ptr, ...) @H5E_printf_stack(ptr noundef @.str, ptr noundef @__func__.H5Tcommit1, i32 noundef 130, i64 noundef %215, i64 noundef %216, ptr noundef @.str.9)
  br label %218

218:                                              ; preds = %214
  store i8 1, ptr %14, align 1
  %219 = load i8, ptr %14, align 1
  %220 = trunc i8 %219 to i1
  %221 = zext i1 %220 to i8
  store i8 %221, ptr %14, align 1
  br label %222

222:                                              ; preds = %218
  br label %223

223:                                              ; preds = %222
  store i32 -1, ptr %12, align 4
  br label %230

224:                                              ; No predecessors!
  br label %225

225:                                              ; preds = %224
  br label %226

226:                                              ; preds = %225, %204
  %227 = load ptr, ptr %8, align 8
  %228 = load ptr, ptr %9, align 8
  %229 = getelementptr inbounds %struct.H5T_t, ptr %228, i32 0, i32 4
  store ptr %227, ptr %229, align 8
  br label %230

230:                                              ; preds = %226, %223, %201, %176, %153, %134, %115, %96, %72, %48
  %231 = load i8, ptr %13, align 1
  %232 = trunc i8 %231 to i1
  %233 = xor i1 %232, true
  %234 = xor i1 %233, true
  %235 = zext i1 %234 to i32
  %236 = sext i32 %235 to i64
  %237 = icmp ne i64 %236, 0
  br i1 %237, label %238, label %240

238:                                              ; preds = %230
  %239 = call i32 @H5CX_pop(i1 noundef zeroext true)
  store i8 0, ptr %13, align 1
  br label %240

240:                                              ; preds = %238, %230
  %241 = load i8, ptr %14, align 1
  %242 = trunc i8 %241 to i1
  %243 = xor i1 %242, true
  %244 = xor i1 %243, true
  %245 = zext i1 %244 to i32
  %246 = sext i32 %245 to i64
  %247 = icmp ne i64 %246, 0
  br i1 %247, label %248, label %250

248:                                              ; preds = %240
  %249 = call i32 @H5E_dump_api_stack()
  br label %250

250:                                              ; preds = %248, %240
  %251 = load i32, ptr %12, align 4
  ret i32 %251
}