; Function Attrs: nounwind uwtable
define range(i32 -1, 1) i32 @H5Tcommit1(i64 noundef %0, ptr noundef %1, i64 noundef %2) local_unnamed_addr #0 {
  %4 = alloca %struct.H5VL_loc_params_t, align 8
  %5 = load i8, ptr @H5_libinit_g, align 1
  %6 = trunc i8 %5 to i1
  %7 = load i8, ptr @H5_libterm_g, align 1
  %8 = trunc i8 %7 to i1
  %9 = select i1 %6, i1 true, i1 %8
  br i1 %9, label %17, label %10

10:                                               ; preds = %3
  %11 = tail call i32 @H5_init_library() #2
  %12 = icmp slt i32 %11, 0
  br i1 %12, label %13, label %17

13:                                               ; preds = %10
  %14 = load i64, ptr @H5E_FUNC_g, align 8
  %15 = load i64, ptr @H5E_CANTINIT_g, align 8
  %16 = tail call i32 (ptr, ptr, i32, i64, i64, ptr, ...) @H5E_printf_stack(ptr noundef nonnull @.str, ptr noundef nonnull @__func__.H5Tcommit1, i32 noundef 101, i64 noundef %14, i64 noundef %15, ptr noundef nonnull @.str.1) #2
  br label %.thread42

17:                                               ; preds = %10, %3
  %18 = tail call i32 @H5CX_push() #2
  %19 = icmp slt i32 %18, 0
  br i1 %19, label %20, label %24

20:                                               ; preds = %17
  %21 = load i64, ptr @H5E_FUNC_g, align 8
  %22 = load i64, ptr @H5E_CANTSET_g, align 8
  %23 = tail call i32 (ptr, ptr, i32, i64, i64, ptr, ...) @H5E_printf_stack(ptr noundef nonnull @.str, ptr noundef nonnull @__func__.H5Tcommit1, i32 noundef 101, i64 noundef %21, i64 noundef %22, ptr noundef nonnull @.str.2) #2
  br label %.thread42

24:                                               ; preds = %17
  %25 = tail call i32 @H5E_clear_stack() #2
  %.not = icmp eq ptr %1, null
  br i1 %.not, label %28, label %26

26:                                               ; preds = %24
  %27 = load i8, ptr %1, align 1
  %.not32 = icmp eq i8 %27, 0
  br i1 %.not32, label %28, label %32

28:                                               ; preds = %24, %26
  %29 = load i64, ptr @H5E_ARGS_g, align 8
  %30 = load i64, ptr @H5E_BADVALUE_g, align 8
  %31 = tail call i32 (ptr, ptr, i32, i64, i64, ptr, ...) @H5E_printf_stack(ptr noundef nonnull @.str, ptr noundef nonnull @__func__.H5Tcommit1, i32 noundef 105, i64 noundef %29, i64 noundef %30, ptr noundef nonnull @.str.3) #2
  br label %.thread48

32:                                               ; preds = %26
  %33 = tail call ptr @H5I_object_verify(i64 noundef %2, i32 noundef 3) #2
  %34 = icmp eq ptr %33, null
  br i1 %34, label %35, label %39

35:                                               ; preds = %32
  %36 = load i64, ptr @H5E_ARGS_g, align 8
  %37 = load i64, ptr @H5E_BADTYPE_g, align 8
  %38 = tail call i32 (ptr, ptr, i32, i64, i64, ptr, ...) @H5E_printf_stack(ptr noundef nonnull @.str, ptr noundef nonnull @__func__.H5Tcommit1, i32 noundef 107, i64 noundef %36, i64 noundef %37, ptr noundef nonnull @.str.4) #2
  br label %.thread48

39:                                               ; preds = %32
  %40 = tail call i32 @H5T_is_named(ptr noundef nonnull %33) #2
  %.not33 = icmp eq i32 %40, 0
  br i1 %.not33, label %45, label %41

41:                                               ; preds = %39
  %42 = load i64, ptr @H5E_ARGS_g, align 8
  %43 = load i64, ptr @H5E_CANTSET_g, align 8
  %44 = tail call i32 (ptr, ptr, i32, i64, i64, ptr, ...) @H5E_printf_stack(ptr noundef nonnull @.str, ptr noundef nonnull @__func__.H5Tcommit1, i32 noundef 109, i64 noundef %42, i64 noundef %43, ptr noundef nonnull @.str.5) #2
  br label %.thread48

45:                                               ; preds = %39
  %46 = tail call i32 @H5CX_set_loc(i64 noundef %0) #2
  %47 = icmp slt i32 %46, 0
  br i1 %47, label %48, label %52

48:                                               ; preds = %45
  %49 = load i64, ptr @H5E_DATATYPE_g, align 8
  %50 = load i64, ptr @H5E_CANTSET_g, align 8
  %51 = tail call i32 (ptr, ptr, i32, i64, i64, ptr, ...) @H5E_printf_stack(ptr noundef nonnull @.str, ptr noundef nonnull @__func__.H5Tcommit1, i32 noundef 113, i64 noundef %49, i64 noundef %50, ptr noundef nonnull @.str.6) #2
  br label %.thread48

52:                                               ; preds = %45
  %53 = getelementptr inbounds i8, ptr %4, i64 4
  store i32 0, ptr %53, align 4
  %54 = tail call i32 @H5I_get_type(i64 noundef %0) #2
  store i32 %54, ptr %4, align 8
  %55 = tail call ptr @H5I_object(i64 noundef %0) #2
  %56 = icmp eq ptr %55, null
  br i1 %56, label %57, label %61

57:                                               ; preds = %52
  %58 = load i64, ptr @H5E_ARGS_g, align 8
  %59 = load i64, ptr @H5E_BADTYPE_g, align 8
  %60 = tail call i32 (ptr, ptr, i32, i64, i64, ptr, ...) @H5E_printf_stack(ptr noundef nonnull @.str, ptr noundef nonnull @__func__.H5Tcommit1, i32 noundef 120, i64 noundef %58, i64 noundef %59, ptr noundef nonnull @.str.7) #2
  br label %.thread48

61:                                               ; preds = %52
  %62 = load i64, ptr @H5P_LST_LINK_CREATE_ID_g, align 8
  %63 = load i64, ptr @H5P_LST_DATATYPE_CREATE_ID_g, align 8
  %64 = load i64, ptr @H5P_LST_DATATYPE_ACCESS_ID_g, align 8
  %65 = load i64, ptr @H5P_LST_DATASET_XFER_ID_g, align 8
  %66 = call ptr @H5VL_datatype_commit(ptr noundef nonnull %55, ptr noundef nonnull %4, ptr noundef nonnull %1, i64 noundef %2, i64 noundef %62, i64 noundef %63, i64 noundef %64, i64 noundef %65, ptr noundef null) #2
  %67 = icmp eq ptr %66, null
  br i1 %67, label %68, label %72

68:                                               ; preds = %61
  %69 = load i64, ptr @H5E_DATATYPE_g, align 8
  %70 = load i64, ptr @H5E_CANTINIT_g, align 8
  %71 = call i32 (ptr, ptr, i32, i64, i64, ptr, ...) @H5E_printf_stack(ptr noundef nonnull @.str, ptr noundef nonnull @__func__.H5Tcommit1, i32 noundef 126, i64 noundef %69, i64 noundef %70, ptr noundef nonnull @.str.8) #2
  br label %.thread48

72:                                               ; preds = %61
  %73 = getelementptr inbounds i8, ptr %55, i64 8
  %74 = load ptr, ptr %73, align 8
  %75 = call ptr @H5VL_create_object(ptr noundef nonnull %66, ptr noundef %74) #2
  %76 = icmp eq ptr %75, null
  br i1 %76, label %77, label %82

77:                                               ; preds = %72
  %78 = load i64, ptr @H5E_DATATYPE_g, align 8
  %79 = load i64, ptr @H5E_CANTALLOC_g, align 8
  %80 = call i32 (ptr, ptr, i32, i64, i64, ptr, ...) @H5E_printf_stack(ptr noundef nonnull @.str, ptr noundef nonnull @__func__.H5Tcommit1, i32 noundef 130, i64 noundef %78, i64 noundef %79, ptr noundef nonnull @.str.9) #2
  br label %.thread48

.thread48:                                        ; preds = %28, %77, %68, %57, %48, %41, %35
  %81 = call i32 @H5CX_pop(i1 noundef zeroext true) #2
  br label %.thread42

82:                                               ; preds = %72
  %83 = getelementptr inbounds i8, ptr %33, i64 96
  store ptr %75, ptr %83, align 8
  %84 = call i32 @H5CX_pop(i1 noundef zeroext true) #2
  br label %86

.thread42:                                        ; preds = %20, %13, %.thread48
  %85 = call i32 @H5E_dump_api_stack() #2
  br label %86

86:                                               ; preds = %82, %.thread42
  %.0263745 = phi i32 [ -1, %.thread42 ], [ 0, %82 ]
  ret i32 %.0263745
}